target datalayout = "e-m:e-p270:32:32-p271:32:32-p272:64:64-i64:64-i128:128-f80:128-n8:16:32:64-S128"
target triple = "x86_64-pc-linux-gnu"

%struct.Scheduler = type { ptr, ptr, i32, ptr, i32, i32, %union.pthread_mutex_t, i32, i32, %union.pthread_mutex_t, %union.pthread_cond_t, ptr, i32, ptr, i32, ptr, i32, ptr, i32, ptr, i32, i32, i32, %union.pthread_mutex_t, i64 }
%union.pthread_cond_t = type { %struct.__pthread_cond_s }
%struct.__pthread_cond_s = type { %union.__atomic_wide_counter, %union.__atomic_wide_counter, [2 x i32], [2 x i32], i32, i32, [2 x i32] }
%union.__atomic_wide_counter = type { i64 }
%union.pthread_mutex_t = type { %struct.__pthread_mutex_s }
%struct.__pthread_mutex_s = type { i32, i32, i32, i32, i32, i16, i16, %struct.__pthread_internal_list }
%struct.__pthread_internal_list = type { ptr, ptr }
%struct.SchTask = type { ptr, %struct.SchedulerNode, ptr, ptr, i64, i32 }
%struct.SchedulerNode = type { i32, i32, i32 }

@.str.64 = private unnamed_addr constant [40 x i8] c"Task finished with error code: %d (%s)\0A\00", align 1
@.str.65 = private unnamed_addr constant [45 x i8] c"Terminating thread with return code %d (%s)\0A\00", align 1
@.str.66 = private unnamed_addr constant [8 x i8] c"success\00", align 1

; Function Attrs: inlinehint nounwind uwtable
define internal i32 @err_merge(i32 noundef %0, i32 noundef %1) #6 {
  %3 = alloca i32, align 4
  %4 = alloca i32, align 4
  %5 = alloca i32, align 4
  store i32 %0, ptr %4, align 4, !tbaa !12
  store i32 %1, ptr %5, align 4, !tbaa !12
  %6 = load i32, ptr %4, align 4, !tbaa !12
  %7 = icmp sge i32 %6, 0
  br i1 %7, label %11, label %8

8:                                                ; preds = %2
  %9 = load i32, ptr %4, align 4, !tbaa !12
  %10 = icmp eq i32 %9, -541478725
  br i1 %10, label %11, label %16

11:                                               ; preds = %8, %2
  %12 = load i32, ptr %5, align 4, !tbaa !12
  %13 = icmp slt i32 %12, 0
  br i1 %13, label %14, label %16

14:                                               ; preds = %11
  %15 = load i32, ptr %5, align 4, !tbaa !12
  store i32 %15, ptr %3, align 4
  br label %31

16:                                               ; preds = %11, %8
  %17 = load i32, ptr %4, align 4, !tbaa !12
  %18 = icmp slt i32 %17, 0
  br i1 %18, label %19, label %21

19:                                               ; preds = %16
  %20 = load i32, ptr %4, align 4, !tbaa !12
  br label %29

21:                                               ; preds = %16
  %22 = load i32, ptr %5, align 4, !tbaa !12
  %23 = icmp sgt i32 %22, 0
  br i1 %23, label %24, label %25

24:                                               ; preds = %21
  br label %27

25:                                               ; preds = %21
  %26 = load i32, ptr %5, align 4, !tbaa !12
  br label %27

27:                                               ; preds = %25, %24
  %28 = phi i32 [ 0, %24 ], [ %26, %25 ]
  br label %29

29:                                               ; preds = %27, %19
  %30 = phi i32 [ %20, %19 ], [ %28, %27 ]
  store i32 %30, ptr %3, align 4
  br label %31

31:                                               ; preds = %29, %14
  %32 = load i32, ptr %3, align 4
  ret i32 %32
}

; Function Attrs: inlinehint nounwind uwtable
define internal ptr @av_make_error_string(ptr noundef %0, i64 noundef %1, i32 noundef %2) #6 {
  %4 = alloca ptr, align 8
  %5 = alloca i64, align 8
  %6 = alloca i32, align 4
  store ptr %0, ptr %4, align 8, !tbaa !95
  store i64 %1, ptr %5, align 8, !tbaa !92
  store i32 %2, ptr %6, align 4, !tbaa !12
  %7 = load i32, ptr %6, align 4, !tbaa !12
  %8 = load ptr, ptr %4, align 8, !tbaa !95
  %9 = load i64, ptr %5, align 8, !tbaa !92
  %10 = call i32 @av_strerror(i32 noundef %7, ptr noundef %8, i64 noundef %9)
  %11 = load ptr, ptr %4, align 8, !tbaa !95
  ret ptr %11
}

; Function Attrs: nounwind uwtable
define internal ptr @task_wrapper(ptr noundef %0) #0 {
  %2 = alloca ptr, align 8
  %3 = alloca ptr, align 8
  %4 = alloca ptr, align 8
  %5 = alloca i32, align 4
  %6 = alloca i32, align 4
  %7 = alloca [64 x i8], align 1
  %8 = alloca { i64, i32 }, align 8
  %9 = alloca [64 x i8], align 1
  store ptr %0, ptr %2, align 8, !tbaa !97
  call void @llvm.lifetime.start.p0(i64 8, ptr %3) #9
  %10 = load ptr, ptr %2, align 8, !tbaa !97
  store ptr %10, ptr %3, align 8, !tbaa !101
  call void @llvm.lifetime.start.p0(i64 8, ptr %4) #9
  %11 = load ptr, ptr %3, align 8, !tbaa !101
  %12 = getelementptr inbounds nuw %struct.SchTask, ptr %11, i32 0, i32 0
  %13 = load ptr, ptr %12, align 8, !tbaa !103
  store ptr %13, ptr %4, align 8, !tbaa !10
  call void @llvm.lifetime.start.p0(i64 4, ptr %5) #9
  call void @llvm.lifetime.start.p0(i64 4, ptr %6) #9
  store i32 0, ptr %6, align 4, !tbaa !12
  %14 = load ptr, ptr %3, align 8, !tbaa !101
  %15 = getelementptr inbounds nuw %struct.SchTask, ptr %14, i32 0, i32 2
  %16 = load ptr, ptr %15, align 8, !tbaa !106
  %17 = load ptr, ptr %3, align 8, !tbaa !101
  %18 = getelementptr inbounds nuw %struct.SchTask, ptr %17, i32 0, i32 3
  %19 = load ptr, ptr %18, align 8, !tbaa !107
  %20 = call i32 %16(ptr noundef %19)
  store i32 %20, ptr %5, align 4, !tbaa !12
  %21 = load i32, ptr %5, align 4, !tbaa !12
  %22 = icmp slt i32 %21, 0
  br i1 %22, label %23, label %31

23:                                               ; preds = %1
  %24 = load ptr, ptr %3, align 8, !tbaa !101
  %25 = getelementptr inbounds nuw %struct.SchTask, ptr %24, i32 0, i32 3
  %26 = load ptr, ptr %25, align 8, !tbaa !107
  %27 = load i32, ptr %5, align 4, !tbaa !12
  call void @llvm.memset.p0.i64(ptr align 1 %7, i8 0, i64 64, i1 false)
  %28 = getelementptr inbounds [64 x i8], ptr %7, i64 0, i64 0
  %29 = load i32, ptr %5, align 4, !tbaa !12
  %30 = call ptr @av_make_error_string(ptr noundef %28, i64 noundef 64, i32 noundef %29)
  call void (ptr, i32, ptr, ...) @av_log(ptr noundef %26, i32 noundef 16, ptr noundef @.str.64, i32 noundef %27, ptr noundef %30)
  br label %31

31:                                               ; preds = %23, %1
  %32 = load ptr, ptr %4, align 8, !tbaa !10
  %33 = load ptr, ptr %3, align 8, !tbaa !101
  %34 = getelementptr inbounds nuw %struct.SchTask, ptr %33, i32 0, i32 1
  call void @llvm.memcpy.p0.p0.i64(ptr align 8 %8, ptr align 8 %34, i64 12, i1 false)
  %35 = getelementptr inbounds nuw { i64, i32 }, ptr %8, i32 0, i32 0
  %36 = load i64, ptr %35, align 8
  %37 = getelementptr inbounds nuw { i64, i32 }, ptr %8, i32 0, i32 1
  %38 = load i32, ptr %37, align 8
  %39 = call i32 @task_cleanup(ptr noundef %32, i64 %36, i32 %38)
  store i32 %39, ptr %6, align 4, !tbaa !12
  %40 = load i32, ptr %5, align 4, !tbaa !12
  %41 = load i32, ptr %6, align 4, !tbaa !12
  %42 = call i32 @err_merge(i32 noundef %40, i32 noundef %41)
  store i32 %42, ptr %5, align 4, !tbaa !12
  %43 = load i32, ptr %5, align 4, !tbaa !12
  %44 = icmp eq i32 %43, -541478725
  br i1 %44, label %45, label %46

45:                                               ; preds = %31
  store i32 0, ptr %5, align 4, !tbaa !12
  br label %46

46:                                               ; preds = %45, %31
  %47 = load i32, ptr %5, align 4, !tbaa !12
  %48 = icmp slt i32 %47, 0
  br i1 %48, label %49, label %61

49:                                               ; preds = %46
  %50 = load ptr, ptr %4, align 8, !tbaa !10
  %51 = getelementptr inbounds nuw %struct.Scheduler, ptr %50, i32 0, i32 9
  %52 = call i32 @pthread_mutex_lock(ptr noundef %51) #9
  %53 = load ptr, ptr %4, align 8, !tbaa !10
  %54 = getelementptr inbounds nuw %struct.Scheduler, ptr %53, i32 0, i32 8
  store i32 1, ptr %54, align 4, !tbaa !207
  %55 = load ptr, ptr %4, align 8, !tbaa !10
  %56 = getelementptr inbounds nuw %struct.Scheduler, ptr %55, i32 0, i32 10
  %57 = call i32 @pthread_cond_signal(ptr noundef %56) #9
  %58 = load ptr, ptr %4, align 8, !tbaa !10
  %59 = getelementptr inbounds nuw %struct.Scheduler, ptr %58, i32 0, i32 9
  %60 = call i32 @pthread_mutex_unlock(ptr noundef %59) #9
  br label %61

61:                                               ; preds = %49, %46
  %62 = load ptr, ptr %3, align 8, !tbaa !101
  %63 = getelementptr inbounds nuw %struct.SchTask, ptr %62, i32 0, i32 3
  %64 = load ptr, ptr %63, align 8, !tbaa !107
  %65 = load i32, ptr %5, align 4, !tbaa !12
  %66 = icmp slt i32 %65, 0
  %67 = select i1 %66, i32 16, i32 40
  %68 = load i32, ptr %5, align 4, !tbaa !12
  %69 = load i32, ptr %5, align 4, !tbaa !12
  %70 = icmp slt i32 %69, 0
  br i1 %70, label %71, label %75

71:                                               ; preds = %61
  call void @llvm.memset.p0.i64(ptr align 1 %9, i8 0, i64 64, i1 false)
  %72 = getelementptr inbounds [64 x i8], ptr %9, i64 0, i64 0
  %73 = load i32, ptr %5, align 4, !tbaa !12
  %74 = call ptr @av_make_error_string(ptr noundef %72, i64 noundef 64, i32 noundef %73)
  br label %76

75:                                               ; preds = %61
  br label %76

76:                                               ; preds = %75, %71
  %77 = phi ptr [ %74, %71 ], [ @.str.66, %75 ]
  call void (ptr, i32, ptr, ...) @av_log(ptr noundef %64, i32 noundef %67, ptr noundef @.str.65, i32 noundef %68, ptr noundef %77)
  %78 = load i32, ptr %5, align 4, !tbaa !12
  %79 = sext i32 %78 to i64
  %80 = inttoptr i64 %79 to ptr
  call void @llvm.lifetime.end.p0(i64 4, ptr %6) #9
  call void @llvm.lifetime.end.p0(i64 4, ptr %5) #9
  call void @llvm.lifetime.end.p0(i64 8, ptr %4) #9
  call void @llvm.lifetime.end.p0(i64 8, ptr %3) #9
  ret ptr %80
}