; Function Attrs: nounwind uwtable
define internal ptr @task_wrapper(ptr noundef readonly captures(none) %0) #0 {
  %2 = alloca [64 x i8], align 1
  %3 = alloca [64 x i8], align 1
  %4 = load ptr, ptr %0, align 8, !tbaa !89
  %5 = getelementptr inbounds nuw i8, ptr %0, i64 24
  %6 = load ptr, ptr %5, align 8, !tbaa !92
  %7 = getelementptr inbounds nuw i8, ptr %0, i64 32
  %8 = load ptr, ptr %7, align 8, !tbaa !93
  %9 = tail call i32 %6(ptr noundef %8) #9
  %10 = icmp slt i32 %9, 0
  br i1 %10, label %11, label %err_merge.exit

11:                                               ; preds = %1
  %12 = load ptr, ptr %7, align 8, !tbaa !93
  call void @llvm.memset.p0.i64(ptr noundef nonnull align 1 dereferenceable(64) %2, i8 0, i64 64, i1 false)
  %13 = call i32 @av_strerror(i32 noundef range(i32 -2147483648, 0) %9, ptr noundef nonnull %2, i64 noundef 64) #9
  call void (ptr, i32, ptr, ...) @av_log(ptr noundef %12, i32 noundef 16, ptr noundef nonnull @.str.64, i32 noundef %9, ptr noundef nonnull %2) #9
  br label %err_merge.exit

err_merge.exit:                                   ; preds = %11, %1
  %14 = getelementptr inbounds nuw i8, ptr %0, i64 8
  %.sroa.0.0.copyload = load i64, ptr %14, align 8
  %15 = call fastcc i32 @task_cleanup(ptr noundef %4, i64 %.sroa.0.0.copyload)
  %16 = icmp sgt i32 %9, -1
  %17 = icmp eq i32 %9, -541478725
  %or.cond.i = or i1 %16, %17
  %18 = icmp slt i32 %15, 0
  %or.cond3.i = and i1 %or.cond.i, %18
  %19 = call i32 @llvm.smin.i32(i32 %15, i32 0)
  %20 = select i1 %10, i32 %9, i32 %19
  %.0.i = select i1 %or.cond3.i, i32 %15, i32 %20
  %21 = icmp eq i32 %.0.i, -541478725
  %spec.store.select = select i1 %21, i32 0, i32 %.0.i
  %22 = icmp slt i32 %spec.store.select, 0
  br i1 %22, label %25, label %23

23:                                               ; preds = %err_merge.exit
  %24 = load ptr, ptr %7, align 8, !tbaa !93
  br label %34

25:                                               ; preds = %err_merge.exit
  %26 = getelementptr inbounds nuw i8, ptr %4, i64 88
  %27 = call i32 @pthread_mutex_lock(ptr noundef nonnull %26) #9
  %28 = getelementptr inbounds nuw i8, ptr %4, i64 84
  store i32 1, ptr %28, align 4, !tbaa !190
  %29 = getelementptr inbounds nuw i8, ptr %4, i64 128
  %30 = call i32 @pthread_cond_signal(ptr noundef nonnull %29) #9
  %31 = call i32 @pthread_mutex_unlock(ptr noundef nonnull %26) #9
  %32 = load ptr, ptr %7, align 8, !tbaa !93
  call void @llvm.memset.p0.i64(ptr noundef nonnull align 1 dereferenceable(64) %3, i8 0, i64 64, i1 false)
  %33 = call i32 @av_strerror(i32 noundef range(i32 -2147483648, 0) %spec.store.select, ptr noundef nonnull %3, i64 noundef 64) #9
  br label %34

34:                                               ; preds = %23, %25
  %35 = phi ptr [ %24, %23 ], [ %32, %25 ]
  %36 = phi i32 [ 40, %23 ], [ 16, %25 ]
  %37 = phi ptr [ @.str.66, %23 ], [ %3, %25 ]
  call void (ptr, i32, ptr, ...) @av_log(ptr noundef %35, i32 noundef %36, ptr noundef nonnull @.str.65, i32 noundef %spec.store.select, ptr noundef nonnull %37) #9
  %38 = sext i32 %spec.store.select to i64
  %39 = inttoptr i64 %38 to ptr
  ret ptr %39
}